; Function Attrs: nounwind uwtable
define dso_local ptr @parse_ct_error_stmt(ptr noundef %0) local_unnamed_addr #0 {
  %2 = getelementptr inbounds i8, ptr %0, i64 48
  %3 = load i64, ptr %2, align 8
  %4 = tail call ptr @vmem_alloc(ptr noundef nonnull @ast_arena, i64 noundef 48) #5
  store i64 %3, ptr %4, align 8
  %5 = getelementptr inbounds i8, ptr %4, i64 12
  store i8 8, ptr %5, align 4
  tail call void @advance(ptr noundef %0) #5
  %6 = getelementptr inbounds i8, ptr %4, i64 24
  store i32 0, ptr %6, align 8
  %7 = tail call ptr @parse_constant_expr(ptr noundef %0) #5
  %8 = icmp eq ptr %7, null
  br i1 %8, label %.critedge, label %9

9:                                                ; preds = %1
  %10 = getelementptr inbounds i8, ptr %7, i64 16
  %11 = load i16, ptr %10, align 8
  %12 = and i16 %11, 255
  %.not = icmp eq i16 %12, 0
  br i1 %.not, label %14, label %.split

.split:                                           ; preds = %9
  %13 = ptrtoint ptr %7 to i64
  br label %.critedge

14:                                               ; preds = %9
  %15 = load ptr, ptr @poisoned_ast, align 8
  br label %consume_eos.exit

.critedge:                                        ; preds = %1, %.split
  %.sink = phi i64 [ %13, %.split ], [ 0, %1 ]
  %.sink21 = load ptr, ptr @expr_arena, align 8
  %16 = ptrtoint ptr %.sink21 to i64
  %17 = sub i64 %.sink, %16
  %phi.call.in = sdiv exact i64 %17, 56
  %phi.call = trunc i64 %phi.call.in to i32
  %18 = getelementptr inbounds i8, ptr %4, i64 20
  store i32 %phi.call, ptr %18, align 4
  %19 = tail call zeroext i1 @try_consume(ptr noundef nonnull %0, i32 noundef 9) #5
  br i1 %19, label %consume_eos.exit, label %20

20:                                               ; preds = %.critedge
  %21 = getelementptr inbounds i8, ptr %0, i64 56
  %22 = load i64, ptr %21, align 8
  tail call void (i64, ptr, ...) @sema_error_at_after(i64 %22, ptr noundef nonnull @.str.15) #5
  tail call void @advance(ptr noundef nonnull %0) #5
  %23 = load ptr, ptr @poisoned_ast, align 8
  br label %consume_eos.exit

consume_eos.exit:                                 ; preds = %20, %.critedge, %14
  %.0 = phi ptr [ %15, %14 ], [ %23, %20 ], [ %4, %.critedge ]
  ret ptr %.0
}